# SymbolsHelper-Confirmed: 14.12.50 amd64
libKF5KMahjongglib.so.5 libkf5kmahjongglib5 #MINVER#
* Build-Depends-Package: libkf5kmahjongglib-dev
 _ZN16KMahjonggTileset11loadDefaultEv@Base 14.12.50
 _ZN16KMahjonggTileset11loadTilesetERK7QString@Base 14.12.50
 _ZN16KMahjonggTileset12loadGraphicsEv@Base 14.12.50
 _ZN16KMahjonggTileset12selectedTileEi@Base 14.12.50
 _ZN16KMahjonggTileset13reloadTilesetERK5QSize@Base 14.12.50
 _ZN16KMahjonggTileset13renderElementEssRK7QString@Base 14.12.50
 _ZN16KMahjonggTileset14unselectedTileEi@Base 14.12.50
 _ZN16KMahjonggTileset15updateScaleInfoEss@Base 14.12.50
 _ZN16KMahjonggTileset17preferredTileSizeERK5QSizeii@Base 14.12.50
 _ZN16KMahjonggTileset19buildElementIdTableEv@Base 14.12.50
 _ZN16KMahjonggTileset28pixmapCacheNameFromElementIdERK7QString@Base 14.12.50
 _ZN16KMahjonggTileset8tilefaceEi@Base 14.12.50
 _ZN16KMahjonggTilesetC1Ev@Base 14.12.50
 _ZN16KMahjonggTilesetC2Ev@Base 14.12.50
 _ZN16KMahjonggTilesetD1Ev@Base 14.12.50
 _ZN16KMahjonggTilesetD2Ev@Base 14.12.50
 _ZN19KMahjonggBackground11loadDefaultEv@Base 14.12.50
 _ZN19KMahjonggBackground11sizeChangedEii@Base 14.12.50
 _ZN19KMahjonggBackground12loadGraphicsEv@Base 14.12.50
 _ZN19KMahjonggBackground13getBackgroundEv@Base 14.12.50
 _ZN19KMahjonggBackground4loadERK7QStringss@Base 14.12.50
 _ZN19KMahjonggBackgroundC1Ev@Base 14.12.50
 _ZN19KMahjonggBackgroundC2Ev@Base 14.12.50
 _ZN19KMahjonggBackgroundD1Ev@Base 14.12.50
 _ZN19KMahjonggBackgroundD2Ev@Base 14.12.50
 _ZN21KMahjonggConfigDialog11qt_metacallEN11QMetaObject4CallEiPPv@Base 14.12.50
 _ZN21KMahjonggConfigDialog11qt_metacastEPKc@Base 14.12.50
 _ZN21KMahjonggConfigDialog14addTilesetPageEv@Base 14.12.50
 _ZN21KMahjonggConfigDialog16staticMetaObjectE@Base 14.12.50
 _ZN21KMahjonggConfigDialog17addBackgroundPageEv@Base 14.12.50
 _ZN21KMahjonggConfigDialog20updateWidgetsDefaultEv@Base 14.12.50
 _ZN21KMahjonggConfigDialogC1EP7QWidgetRK7QStringP15KConfigSkeleton@Base 14.12.50
 _ZN21KMahjonggConfigDialogC2EP7QWidgetRK7QStringP15KConfigSkeleton@Base 14.12.50
 _ZN21KMahjonggConfigDialogD0Ev@Base 14.12.50
 _ZN21KMahjonggConfigDialogD1Ev@Base 14.12.50
 _ZN21KMahjonggConfigDialogD2Ev@Base 14.12.50
 (optional=templinst)_ZNK12KConfigGroup9readEntryIiEET_PKcRKS1_@Base 14.12.50
 _ZNK16KMahjonggTileset12levelOffsetXEv@Base 14.12.50
 _ZNK16KMahjonggTileset12levelOffsetYEv@Base 14.12.50
 _ZNK16KMahjonggTileset14authorPropertyERK7QString@Base 14.12.50
 _ZNK16KMahjonggTileset4pathEv@Base 14.12.50
 _ZNK16KMahjonggTileset5widthEv@Base 14.12.50
 _ZNK16KMahjonggTileset6heightEv@Base 14.12.50
 _ZNK16KMahjonggTileset6qWidthEv@Base 14.12.50
 _ZNK16KMahjonggTileset7qHeightEv@Base 14.12.50
 _ZNK19KMahjonggBackground14authorPropertyERK7QString@Base 14.12.50
 _ZNK19KMahjonggBackground4pathEv@Base 14.12.50
 _ZNK21KMahjonggConfigDialog10metaObjectEv@Base 14.12.50
 _ZTI21KMahjonggConfigDialog@Base 14.12.50
 _ZTS21KMahjonggConfigDialog@Base 14.12.50
 _ZTV21KMahjonggConfigDialog@Base 14.12.50
 (c++)"non-virtual thunk to KMahjonggConfigDialog::~KMahjonggConfigDialog()@Base" 14.12.50
